; Function Attrs: mustprogress uwtable
define void @_ZN7rocksdb20SequentialFileReader4SkipEm(ptr dead_on_unwind noalias writable sret(%"class.rocksdb::IOStatus") align 8 %0, ptr noundef nonnull align 8 dereferenceable(169) %1, i64 noundef %2) local_unnamed_addr #0 align 2 personality ptr @__gxx_personality_v0 {
  %4 = getelementptr inbounds nuw i8, ptr %1, i64 32
  %5 = load ptr, ptr %4, align 8, !tbaa !110
  %.not.i.i = icmp eq ptr %5, null
  br i1 %.not.i.i, label %12, label %6

6:                                                ; preds = %3
  %7 = getelementptr inbounds nuw i8, ptr %5, i64 104
  %8 = load i8, ptr %7, align 8, !tbaa !111, !range !107, !noundef !108
  %9 = trunc nuw i8 %8 to i1
  br i1 %9, label %10, label %12

10:                                               ; preds = %6
  %11 = getelementptr inbounds nuw i8, ptr %1, i64 48
  br label %_ZNK7rocksdb20SequentialFileReader13use_direct_ioEv.exit

12:                                               ; preds = %6, %3
  %13 = getelementptr inbounds nuw i8, ptr %1, i64 56
  %14 = load ptr, ptr %13, align 8, !tbaa !120
  br label %_ZNK7rocksdb20SequentialFileReader13use_direct_ioEv.exit

_ZNK7rocksdb20SequentialFileReader13use_direct_ioEv.exit: ; preds = %10, %12
  %.0.i.i = phi ptr [ %11, %10 ], [ %14, %12 ]
  %15 = load ptr, ptr %.0.i.i, align 8, !tbaa !15
  %16 = getelementptr inbounds nuw i8, ptr %15, i64 32
  %17 = load ptr, ptr %16, align 8
  %18 = tail call noundef zeroext i1 %17(ptr noundef nonnull align 8 dereferenceable(8) %.0.i.i)
  br i1 %18, label %19, label %25

19:                                               ; preds = %_ZNK7rocksdb20SequentialFileReader13use_direct_ioEv.exit
  %20 = getelementptr inbounds nuw i8, ptr %1, i64 128
  %21 = atomicrmw add ptr %20, i64 %2 seq_cst, align 8
  store i8 0, ptr %0, align 8, !tbaa !17, !alias.scope !168
  %22 = getelementptr inbounds nuw i8, ptr %0, i64 1
  store i8 0, ptr %22, align 1, !tbaa !84, !alias.scope !168
  %23 = getelementptr inbounds nuw i8, ptr %0, i64 2
  %24 = getelementptr inbounds nuw i8, ptr %0, i64 8
  store ptr null, ptr %24, align 8, !tbaa !85, !alias.scope !168
  store i32 0, ptr %23, align 2, !alias.scope !168
  br label %39

25:                                               ; preds = %_ZNK7rocksdb20SequentialFileReader13use_direct_ioEv.exit
  %26 = load ptr, ptr %4, align 8, !tbaa !110
  %.not.i = icmp eq ptr %26, null
  br i1 %.not.i, label %33, label %27

27:                                               ; preds = %25
  %28 = getelementptr inbounds nuw i8, ptr %26, i64 104
  %29 = load i8, ptr %28, align 8, !tbaa !111, !range !107, !noundef !108
  %30 = trunc nuw i8 %29 to i1
  br i1 %30, label %31, label %33

31:                                               ; preds = %27
  %32 = getelementptr inbounds nuw i8, ptr %1, i64 48
  br label %_ZNK7rocksdb19FSSequentialFilePtrptEv.exit

33:                                               ; preds = %27, %25
  %34 = getelementptr inbounds nuw i8, ptr %1, i64 56
  %35 = load ptr, ptr %34, align 8, !tbaa !120
  br label %_ZNK7rocksdb19FSSequentialFilePtrptEv.exit

_ZNK7rocksdb19FSSequentialFilePtrptEv.exit:       ; preds = %31, %33
  %.0.i = phi ptr [ %32, %31 ], [ %35, %33 ]
  %36 = load ptr, ptr %.0.i, align 8, !tbaa !15
  %37 = getelementptr inbounds nuw i8, ptr %36, i64 24
  %38 = load ptr, ptr %37, align 8
  tail call void %38(ptr dead_on_unwind writable sret(%"class.rocksdb::IOStatus") align 8 %0, ptr noundef nonnull align 8 dereferenceable(8) %.0.i, i64 noundef %2)
  br label %39

39:                                               ; preds = %_ZNK7rocksdb19FSSequentialFilePtrptEv.exit, %19
  ret void
}